(dp0
S'boxCenter'
p1
cnumpy.core.multiarray
_reconstruct
p2
(cnumpy
ndarray
p3
(I0
tp4
S'b'
p5
tp6
Rp7
(I1
(I3
tp8
cnumpy
dtype
p9
(S'f8'
p10
I0
I1
tp11
Rp12
(I3
S'<'
p13
NNNI-1
I-1
I0
tp14
bI00
S')\\\x8f\xc2\xf5\x88#\xc0\xac\x1cZd;\xdf&@\xe8\xfb\xa9\xf1\xd29Q@'
p15
tp16
bsS'mapGradients'
p17
I01
sS'pepScore'
p18
I01
sS'ligandSize'
p19
I500
sS'boxMode'
p20
(lp21
S'ligand'
p22
asS'boxLengths'
p23
g2
(g3
(I0
tp24
g5
tp25
Rp26
(I1
(I3
tp27
g12
I00
S'\x00\x00\x00\x00\x00\x008@\x00\x00\x00\x00\x00@A@\x00\x00\x00\x00\x00\x809@'
p28
tp29
bsS'platform'
p30
S'Windows-10-10.0.19041'
p31
sS'inputLigand'
p32
S'6lu7_ref_ligand.pdbqt'
p33
sS'inputReceptor'
p34
S'6lu7_protein_prepared.pdbqt'
p35
sS'flexResStr'
p36
S'A:MET17,THR24,THR25,THR26,LEU27,ASN28,ARG40,HIS41,CYS44,THR45,SER46,MET49,PHE140,ASN142,SER144,CYS145,HIS163,HIS164,MET165,GLU166,LEU167,THR169,HIS172,ASP187,ARG188,GLN189,THR190,GLN192'
p37
sS'fillPointsFile'
p38
S'C:/Users/dell/Desktop/target\\6lu7_protein_1\\translationPoints.npy'
p39
sS'covalentLigandAtomIndices'
p40
NsS'node'
p41
S'Samrat'
p42
sS'boxPadding'
p43
F7.0
sS'spacing'
p44
F0.375
sS'AGFRVERSION'
p45
S'1.2rc1'
p46
sS'date'
p47
S'Fri Jan  6 11:37:29 2023'
p48
sS'covalentLigandFile'
p49
S''
p50
sS'AutoSiteVersion'
p51
S'1.1'
p52
sS'gradCutOff'
p53
I-1
sS'wMapEntropy'
p54
F-0.2
sS'nbFillPoints'
p55
I18
sS'mapTypes'
p56
(lp57
S'A'
p58
aS'C'
p59
aS'd'
p60
aS'e'
p61
aS'H'
p62
aS'HD'
p63
aS'N'
p64
aS'NA'
p65
aS'OA'
p66
aS'SA'
p67
aS'W'
p68
asS'boxSize'
p69
(lp70
I64
aI92
aI68
asS'flexRecFile'
p71
S'flexRec.pdbqt'
p72
sS'wMapWeight'
p73
F0.6
s.